; Function Attrs: nounwind uwtable
define internal void @iof_write_event_construct(ptr noundef initializes((144, 146), (148, 160), (176, 180), (224, 236), (240, 304)) %0) #0 {
  %2 = getelementptr inbounds nuw i8, ptr %0, i64 144
  store i8 0, ptr %2, align 8, !tbaa !265
  %3 = getelementptr inbounds nuw i8, ptr %0, i64 145
  store i8 0, ptr %3, align 1, !tbaa !266
  %4 = getelementptr inbounds nuw i8, ptr %0, i64 148
  store i32 0, ptr %4, align 4, !tbaa !271
  %5 = tail call noalias dereferenceable_or_null(128) ptr @malloc(i64 noundef 128) #19
  %6 = getelementptr inbounds nuw i8, ptr %0, i64 152
  store ptr %5, ptr %6, align 8, !tbaa !267
  %7 = getelementptr inbounds nuw i8, ptr %0, i64 176
  store i32 -1, ptr %7, align 8, !tbaa !211
  %8 = load i32, ptr @pmix_class_init_epoch, align 4, !tbaa !63
  %9 = load i32, ptr getelementptr inbounds nuw (i8, ptr @pmix_list_t_class, i64 32), align 8, !tbaa !64
  %.not = icmp eq i32 %8, %9
  br i1 %.not, label %11, label %10

10:                                               ; preds = %1
  tail call void @pmix_class_initialize(ptr noundef nonnull @pmix_list_t_class) #18
  br label %11

11:                                               ; preds = %10, %1
  %12 = getelementptr inbounds nuw i8, ptr %0, i64 184
  %13 = getelementptr inbounds nuw i8, ptr %0, i64 224
  store ptr @pmix_list_t_class, ptr %13, align 8, !tbaa !65
  %14 = getelementptr inbounds nuw i8, ptr %0, i64 232
  store i32 1, ptr %14, align 8, !tbaa !66
  %15 = getelementptr inbounds nuw i8, ptr %0, i64 240
  tail call void @llvm.memset.p0.i64(ptr noundef nonnull align 8 dereferenceable(64) %15, i8 0, i64 64, i1 false)
  %16 = load ptr, ptr getelementptr inbounds nuw (i8, ptr @pmix_list_t_class, i64 40), align 8, !tbaa !67
  %17 = load ptr, ptr %16, align 8, !tbaa !68
  %.not6.i = icmp eq ptr %17, null
  br i1 %.not6.i, label %pmix_obj_run_constructors.exit, label %.lr.ph.i

.lr.ph.i:                                         ; preds = %11, %.lr.ph.i
  %18 = phi ptr [ %20, %.lr.ph.i ], [ %17, %11 ]
  %.07.i = phi ptr [ %19, %.lr.ph.i ], [ %16, %11 ]
  tail call void %18(ptr noundef nonnull %12) #18
  %19 = getelementptr inbounds nuw i8, ptr %.07.i, i64 8
  %20 = load ptr, ptr %19, align 8, !tbaa !68
  %.not.i = icmp eq ptr %20, null
  br i1 %.not.i, label %pmix_obj_run_constructors.exit, label %.lr.ph.i, !llvm.loop !69

pmix_obj_run_constructors.exit:                   ; preds = %.lr.ph.i, %11
  %21 = getelementptr inbounds nuw i8, ptr %0, i64 160
  tail call void @llvm.memset.p0.i64(ptr noundef nonnull align 8 dereferenceable(16) %21, i8 0, i64 16, i1 false)
  ret void
}